target datalayout = "e-m:e-p270:32:32-p271:32:32-p272:64:64-i64:64-i128:128-f80:128-n8:16:32:64-S128"
target triple = "x86_64-pc-linux-gnu"

%"class.icu_77::ErrorCode" = type <{ ptr, i32, [4 x i8] }>
%"class.icu_77::IcuToolErrorCode" = type { %"class.icu_77::ErrorCode.base", ptr }
%"class.icu_77::ErrorCode.base" = type <{ ptr, i32 }>
%class.PendingDescriptor = type { i32, i32, i8, i8, i8, i32, i32 }
%"struct.std::_Vector_base.11" = type { %"struct.std::_Vector_base<PendingDescriptor, std::allocator<PendingDescriptor>>::_Vector_impl" }
%"struct.std::_Vector_base<PendingDescriptor, std::allocator<PendingDescriptor>>::_Vector_impl" = type { %"struct.std::_Vector_base<PendingDescriptor, std::allocator<PendingDescriptor>>::_Vector_impl_data" }
%"struct.std::_Vector_base<PendingDescriptor, std::allocator<PendingDescriptor>>::_Vector_impl_data" = type { ptr, ptr, ptr }

@.str.50 = private unnamed_addr constant [39 x i8] c"icuexportdata: pendingInsertionsToTrie\00", align 1
@_ZTVN6icu_7716IcuToolErrorCodeE = available_externally unnamed_addr constant { [5 x ptr] } { [5 x ptr] [ptr null, ptr @_ZTIN6icu_7716IcuToolErrorCodeE, ptr @_ZN6icu_7716IcuToolErrorCodeD1Ev, ptr @_ZN6icu_7716IcuToolErrorCodeD0Ev, ptr @_ZNK6icu_7716IcuToolErrorCode13handleFailureEv] }, align 8
@_ZTVN6icu_779ErrorCodeE = external unnamed_addr constant { [5 x ptr] }, align 8

; Function Attrs: mustprogress nounwind uwtable
define linkonce_odr dso_local void @_ZN6icu_779ErrorCodeC2Ev(ptr noundef nonnull align 8 dereferenceable(12) %0) unnamed_addr #4 comdat align 2 {
  %2 = alloca ptr, align 8
  store ptr %0, ptr %2, align 8, !tbaa !24
  %3 = load ptr, ptr %2, align 8
  store ptr getelementptr inbounds inrange(-16, 24) ({ [5 x ptr] }, ptr @_ZTVN6icu_779ErrorCodeE, i32 0, i32 0, i32 2), ptr %3, align 8, !tbaa !30
  %4 = getelementptr inbounds nuw %"class.icu_77::ErrorCode", ptr %3, i32 0, i32 1
  store i32 0, ptr %4, align 8, !tbaa !26
  ret void
}

; Function Attrs: mustprogress nounwind uwtable
define linkonce_odr dso_local noundef ptr @_ZN6icu_779ErrorCodecvP10UErrorCodeEv(ptr noundef nonnull align 8 dereferenceable(12) %0) #4 comdat align 2 {
  %2 = alloca ptr, align 8
  store ptr %0, ptr %2, align 8, !tbaa !24
  %3 = load ptr, ptr %2, align 8
  %4 = getelementptr inbounds nuw %"class.icu_77::ErrorCode", ptr %3, i32 0, i32 1
  ret ptr %4
}

; Function Attrs: mustprogress nounwind uwtable
define linkonce_odr dso_local void @_ZN6icu_779ErrorCode3setE10UErrorCode(ptr noundef nonnull align 8 dereferenceable(12) %0, i32 noundef %1) #4 comdat align 2 {
  %3 = alloca ptr, align 8
  %4 = alloca i32, align 4
  store ptr %0, ptr %3, align 8, !tbaa !24
  store i32 %1, ptr %4, align 4, !tbaa !16
  %5 = load ptr, ptr %3, align 8
  %6 = load i32, ptr %4, align 4, !tbaa !16
  %7 = getelementptr inbounds nuw %"class.icu_77::ErrorCode", ptr %5, i32 0, i32 1
  store i32 %6, ptr %7, align 8, !tbaa !26
  ret void
}

; Function Attrs: mustprogress nounwind uwtable
define linkonce_odr dso_local noundef nonnull align 4 dereferenceable(20) ptr @_ZNKSt6vectorI17PendingDescriptorSaIS0_EEixEm(ptr noundef nonnull align 8 dereferenceable(24) %0, i64 noundef %1) #4 comdat align 2 {
  %3 = alloca ptr, align 8
  %4 = alloca i64, align 8
  store ptr %0, ptr %3, align 8, !tbaa !133
  store i64 %1, ptr %4, align 8, !tbaa !19
  %5 = load ptr, ptr %3, align 8
  %6 = getelementptr inbounds nuw %"struct.std::_Vector_base.11", ptr %5, i32 0, i32 0
  %7 = getelementptr inbounds nuw %"struct.std::_Vector_base<PendingDescriptor, std::allocator<PendingDescriptor>>::_Vector_impl_data", ptr %6, i32 0, i32 0
  %8 = load ptr, ptr %7, align 8, !tbaa !138
  %9 = load i64, ptr %4, align 8, !tbaa !19
  %10 = getelementptr inbounds nuw %class.PendingDescriptor, ptr %8, i64 %9
  ret ptr %10
}

; Function Attrs: mustprogress nounwind uwtable
define linkonce_odr dso_local noundef i64 @_ZNKSt6vectorI17PendingDescriptorSaIS0_EE4sizeEv(ptr noundef nonnull align 8 dereferenceable(24) %0) #4 comdat align 2 {
  %2 = alloca ptr, align 8
  store ptr %0, ptr %2, align 8, !tbaa !133
  %3 = load ptr, ptr %2, align 8
  %4 = getelementptr inbounds nuw %"struct.std::_Vector_base.11", ptr %3, i32 0, i32 0
  %5 = getelementptr inbounds nuw %"struct.std::_Vector_base<PendingDescriptor, std::allocator<PendingDescriptor>>::_Vector_impl_data", ptr %4, i32 0, i32 1
  %6 = load ptr, ptr %5, align 8, !tbaa !136
  %7 = getelementptr inbounds nuw %"struct.std::_Vector_base.11", ptr %3, i32 0, i32 0
  %8 = getelementptr inbounds nuw %"struct.std::_Vector_base<PendingDescriptor, std::allocator<PendingDescriptor>>::_Vector_impl_data", ptr %7, i32 0, i32 0
  %9 = load ptr, ptr %8, align 8, !tbaa !138
  %10 = ptrtoint ptr %6 to i64
  %11 = ptrtoint ptr %9 to i64
  %12 = sub i64 %10, %11
  %13 = sdiv exact i64 %12, 20
  ret i64 %13
}

; Function Attrs: mustprogress uwtable
define linkonce_odr dso_local void @_ZN6icu_7716IcuToolErrorCodeC2EPKc(ptr noundef nonnull align 8 dereferenceable(24) %0, ptr noundef %1) unnamed_addr #5 comdat align 2 {
  %3 = alloca ptr, align 8
  %4 = alloca ptr, align 8
  store ptr %0, ptr %3, align 8, !tbaa !42
  store ptr %1, ptr %4, align 8, !tbaa !18
  %5 = load ptr, ptr %3, align 8
  call void @_ZN6icu_779ErrorCodeC2Ev(ptr noundef nonnull align 8 dereferenceable(12) %5)
  store ptr getelementptr inbounds inrange(-16, 24) ({ [5 x ptr] }, ptr @_ZTVN6icu_7716IcuToolErrorCodeE, i32 0, i32 0, i32 2), ptr %5, align 8, !tbaa !30
  %6 = getelementptr inbounds nuw %"class.icu_77::IcuToolErrorCode", ptr %5, i32 0, i32 1
  %7 = load ptr, ptr %4, align 8, !tbaa !18
  store ptr %7, ptr %6, align 8, !tbaa !44
  ret void
}

; Function Attrs: mustprogress uwtable
define dso_local void @_Z23pendingInsertionsToTriePKcP14UMutableCPTrieRKSt6vectorI17PendingDescriptorSaIS4_EEjjj(ptr noundef %0, ptr noundef %1, ptr noundef nonnull align 8 dereferenceable(24) %2, i32 noundef %3, i32 noundef %4, i32 noundef %5) #5 personality ptr @__gxx_personality_v0 {
  %7 = alloca ptr, align 8
  %8 = alloca ptr, align 8
  %9 = alloca ptr, align 8
  %10 = alloca i32, align 4
  %11 = alloca i32, align 4
  %12 = alloca i32, align 4
  %13 = alloca %"class.icu_77::IcuToolErrorCode", align 8
  %14 = alloca i32, align 4
  %15 = alloca ptr, align 8
  %16 = alloca i32, align 4
  %17 = alloca i32, align 4
  %18 = alloca i32, align 4
  %19 = alloca ptr, align 8
  %20 = alloca i32, align 4
  store ptr %0, ptr %7, align 8, !tbaa !18
  store ptr %1, ptr %8, align 8, !tbaa !63
  store ptr %2, ptr %9, align 8, !tbaa !133
  store i32 %3, ptr %10, align 4, !tbaa !15
  store i32 %4, ptr %11, align 4, !tbaa !15
  store i32 %5, ptr %12, align 4, !tbaa !15
  call void @llvm.lifetime.start.p0(i64 24, ptr %13) #3
  call void @_ZN6icu_7716IcuToolErrorCodeC2EPKc(ptr noundef nonnull align 8 dereferenceable(24) %13, ptr noundef @.str.50)
  call void @llvm.lifetime.start.p0(i64 4, ptr %14) #3
  %21 = load ptr, ptr %9, align 8, !tbaa !133
  %22 = call noundef i64 @_ZNKSt6vectorI17PendingDescriptorSaIS0_EE4sizeEv(ptr noundef nonnull align 8 dereferenceable(24) %21) #3
  %23 = sub i64 %22, 1
  %24 = trunc i64 %23 to i32
  store i32 %24, ptr %14, align 4, !tbaa !15
  br label %25

25:                                               ; preds = %133, %6
  %26 = load i32, ptr %14, align 4, !tbaa !15
  %27 = icmp sge i32 %26, 0
  br i1 %27, label %29, label %28

28:                                               ; preds = %25
  call void @llvm.lifetime.end.p0(i64 4, ptr %14) #3
  br label %137

29:                                               ; preds = %25
  call void @llvm.lifetime.start.p0(i64 8, ptr %15) #3
  %30 = load ptr, ptr %9, align 8, !tbaa !133
  %31 = load i32, ptr %14, align 4, !tbaa !15
  %32 = sext i32 %31 to i64
  %33 = call noundef nonnull align 4 dereferenceable(20) ptr @_ZNKSt6vectorI17PendingDescriptorSaIS0_EEixEm(ptr noundef nonnull align 8 dereferenceable(24) %30, i64 noundef %32) #3
  store ptr %33, ptr %15, align 8, !tbaa !110
  %34 = load ptr, ptr %15, align 8, !tbaa !110
  %35 = getelementptr inbounds nuw %class.PendingDescriptor, ptr %34, i32 0, i32 2
  %36 = load i8, ptr %35, align 4, !tbaa !115
  %37 = icmp ne i8 %36, 0
  br i1 %37, label %38, label %117

38:                                               ; preds = %29
  call void @llvm.lifetime.start.p0(i64 4, ptr %16) #3
  store i32 0, ptr %16, align 4, !tbaa !15
  call void @llvm.lifetime.start.p0(i64 4, ptr %17) #3
  %39 = load ptr, ptr %15, align 8, !tbaa !110
  %40 = getelementptr inbounds nuw %class.PendingDescriptor, ptr %39, i32 0, i32 6
  %41 = load i32, ptr %40, align 4, !tbaa !119
  store i32 %41, ptr %17, align 4, !tbaa !15
  call void @llvm.lifetime.start.p0(i64 4, ptr %18) #3
  %42 = load ptr, ptr %15, align 8, !tbaa !110
  %43 = getelementptr inbounds nuw %class.PendingDescriptor, ptr %42, i32 0, i32 5
  %44 = load i32, ptr %43, align 4, !tbaa !118
  store i32 %44, ptr %18, align 4, !tbaa !15
  %45 = load ptr, ptr %15, align 8, !tbaa !110
  %46 = getelementptr inbounds nuw %class.PendingDescriptor, ptr %45, i32 0, i32 3
  %47 = load i8, ptr %46, align 1, !tbaa !116
  %48 = icmp ne i8 %47, 0
  br i1 %48, label %58, label %49

49:                                               ; preds = %38
  %50 = load i32, ptr %18, align 4, !tbaa !15
  %51 = sub i32 %50, 2
  store i32 %51, ptr %18, align 4, !tbaa !15
  %52 = load i32, ptr %17, align 4, !tbaa !15
  %53 = load i32, ptr %10, align 4, !tbaa !15
  %54 = icmp uge i32 %52, %53
  br i1 %54, label %55, label %57

55:                                               ; preds = %49
  %56 = load i32, ptr %11, align 4, !tbaa !15
  store i32 %56, ptr %16, align 4, !tbaa !15
  br label %57

57:                                               ; preds = %55, %49
  br label %71

58:                                               ; preds = %38
  %59 = load i32, ptr %18, align 4, !tbaa !15
  %60 = sub i32 %59, 1
  store i32 %60, ptr %18, align 4, !tbaa !15
  %61 = load i32, ptr %17, align 4, !tbaa !15
  %62 = load i32, ptr %11, align 4, !tbaa !15
  %63 = icmp uge i32 %61, %62
  br i1 %63, label %64, label %68

64:                                               ; preds = %58
  %65 = load i32, ptr %10, align 4, !tbaa !15
  %66 = load i32, ptr %12, align 4, !tbaa !15
  %67 = add i32 %65, %66
  store i32 %67, ptr %16, align 4, !tbaa !15
  br label %70

68:                                               ; preds = %58
  %69 = load i32, ptr %10, align 4, !tbaa !15
  store i32 %69, ptr %16, align 4, !tbaa !15
  br label %70

70:                                               ; preds = %68, %64
  br label %71

71:                                               ; preds = %70, %57
  %72 = load i32, ptr %17, align 4, !tbaa !15
  %73 = add i32 %72, 1
  store i32 %73, ptr %17, align 4, !tbaa !15
  %74 = load i32, ptr %17, align 4, !tbaa !15
  %75 = load i32, ptr %16, align 4, !tbaa !15
  %76 = add i32 %74, %75
  %77 = icmp ugt i32 %76, 4095
  br i1 %77, label %78, label %86

78:                                               ; preds = %71
  invoke void @_ZN6icu_779ErrorCode3setE10UErrorCode(ptr noundef nonnull align 8 dereferenceable(12) %13, i32 noundef 5)
          to label %79 unwind label %82

79:                                               ; preds = %78
  %80 = load ptr, ptr %7, align 8, !tbaa !18
  invoke void @_Z11handleErrorRN6icu_779ErrorCodeEiPKc(ptr noundef nonnull align 8 dereferenceable(12) %13, i32 noundef 633, ptr noundef %80)
          to label %81 unwind label %82

81:                                               ; preds = %79
  br label %86

82:                                               ; preds = %115, %93, %90, %89, %79, %78
  %83 = landingpad { ptr, i32 }
          cleanup
  %84 = extractvalue { ptr, i32 } %83, 0
  store ptr %84, ptr %19, align 8
  %85 = extractvalue { ptr, i32 } %83, 1
  store i32 %85, ptr %20, align 4
  call void @llvm.lifetime.end.p0(i64 4, ptr %18) #3
  call void @llvm.lifetime.end.p0(i64 4, ptr %17) #3
  call void @llvm.lifetime.end.p0(i64 4, ptr %16) #3
  br label %136

86:                                               ; preds = %81, %71
  %87 = load i32, ptr %18, align 4, !tbaa !15
  %88 = icmp ugt i32 %87, 7
  br i1 %88, label %89, label %93

89:                                               ; preds = %86
  invoke void @_ZN6icu_779ErrorCode3setE10UErrorCode(ptr noundef nonnull align 8 dereferenceable(12) %13, i32 noundef 5)
          to label %90 unwind label %82

90:                                               ; preds = %89
  %91 = load ptr, ptr %7, align 8, !tbaa !18
  invoke void @_Z11handleErrorRN6icu_779ErrorCodeEiPKc(ptr noundef nonnull align 8 dereferenceable(12) %13, i32 noundef 637, ptr noundef %91)
          to label %92 unwind label %82

92:                                               ; preds = %90
  br label %93

93:                                               ; preds = %92, %86
  %94 = load ptr, ptr %8, align 8, !tbaa !63
  %95 = load ptr, ptr %15, align 8, !tbaa !110
  %96 = getelementptr inbounds nuw %class.PendingDescriptor, ptr %95, i32 0, i32 0
  %97 = load i32, ptr %96, align 4, !tbaa !112
  %98 = load ptr, ptr %15, align 8, !tbaa !110
  %99 = getelementptr inbounds nuw %class.PendingDescriptor, ptr %98, i32 0, i32 1
  %100 = load i32, ptr %99, align 4, !tbaa !114
  %101 = load ptr, ptr %15, align 8, !tbaa !110
  %102 = getelementptr inbounds nuw %class.PendingDescriptor, ptr %101, i32 0, i32 4
  %103 = load i8, ptr %102, align 2, !tbaa !117
  %104 = sext i8 %103 to i32
  %105 = shl i32 %104, 4
  %106 = or i32 %100, %105
  %107 = load i32, ptr %18, align 4, !tbaa !15
  %108 = or i32 %106, %107
  %109 = load i32, ptr %17, align 4, !tbaa !15
  %110 = load i32, ptr %16, align 4, !tbaa !15
  %111 = add i32 %109, %110
  %112 = shl i32 %111, 16
  %113 = or i32 %108, %112
  %114 = invoke noundef ptr @_ZN6icu_779ErrorCodecvP10UErrorCodeEv(ptr noundef nonnull align 8 dereferenceable(12) %13)
          to label %115 unwind label %82

115:                                              ; preds = %93
  invoke void @umutablecptrie_set_77(ptr noundef %94, i32 noundef %97, i32 noundef %113, ptr noundef %114)
          to label %116 unwind label %82

116:                                              ; preds = %115
  call void @llvm.lifetime.end.p0(i64 4, ptr %18) #3
  call void @llvm.lifetime.end.p0(i64 4, ptr %17) #3
  call void @llvm.lifetime.end.p0(i64 4, ptr %16) #3
  br label %132

117:                                              ; preds = %29
  %118 = load ptr, ptr %8, align 8, !tbaa !63
  %119 = load ptr, ptr %15, align 8, !tbaa !110
  %120 = getelementptr inbounds nuw %class.PendingDescriptor, ptr %119, i32 0, i32 0
  %121 = load i32, ptr %120, align 4, !tbaa !112
  %122 = load ptr, ptr %15, align 8, !tbaa !110
  %123 = getelementptr inbounds nuw %class.PendingDescriptor, ptr %122, i32 0, i32 1
  %124 = load i32, ptr %123, align 4, !tbaa !114
  %125 = invoke noundef ptr @_ZN6icu_779ErrorCodecvP10UErrorCodeEv(ptr noundef nonnull align 8 dereferenceable(12) %13)
          to label %126 unwind label %128

126:                                              ; preds = %117
  invoke void @umutablecptrie_set_77(ptr noundef %118, i32 noundef %121, i32 noundef %124, ptr noundef %125)
          to label %127 unwind label %128

127:                                              ; preds = %126
  br label %132

128:                                              ; preds = %126, %117
  %129 = landingpad { ptr, i32 }
          cleanup
  %130 = extractvalue { ptr, i32 } %129, 0
  store ptr %130, ptr %19, align 8
  %131 = extractvalue { ptr, i32 } %129, 1
  store i32 %131, ptr %20, align 4
  br label %136

132:                                              ; preds = %127, %116
  call void @llvm.lifetime.end.p0(i64 8, ptr %15) #3
  br label %133

133:                                              ; preds = %132
  %134 = load i32, ptr %14, align 4, !tbaa !15
  %135 = add nsw i32 %134, -1
  store i32 %135, ptr %14, align 4, !tbaa !15
  br label %25, !llvm.loop !135

136:                                              ; preds = %128, %82
  call void @llvm.lifetime.end.p0(i64 8, ptr %15) #3
  call void @llvm.lifetime.end.p0(i64 4, ptr %14) #3
  call void @_ZN6icu_7716IcuToolErrorCodeD1Ev(ptr noundef nonnull align 8 dereferenceable(24) %13) #3
  call void @llvm.lifetime.end.p0(i64 24, ptr %13) #3
  br label %138

137:                                              ; preds = %28
  call void @_ZN6icu_7716IcuToolErrorCodeD1Ev(ptr noundef nonnull align 8 dereferenceable(24) %13) #3
  call void @llvm.lifetime.end.p0(i64 24, ptr %13) #3
  ret void

138:                                              ; preds = %136
  %139 = load ptr, ptr %19, align 8
  %140 = load i32, ptr %20, align 4
  %141 = insertvalue { ptr, i32 } poison, ptr %139, 0
  %142 = insertvalue { ptr, i32 } %141, i32 %140, 1
  resume { ptr, i32 } %142
}