; Function Attrs: mustprogress uwtable
define dso_local void @_Z23pendingInsertionsToTriePKcP14UMutableCPTrieRKSt6vectorI17PendingDescriptorSaIS4_EEjjj(ptr noundef %0, ptr noundef %1, ptr noundef nonnull readonly align 8 captures(none) dereferenceable(24) %2, i32 noundef %3, i32 noundef %4, i32 noundef %5) local_unnamed_addr #4 personality ptr @__gxx_personality_v0 {
  %7 = alloca %"class.icu_77::IcuToolErrorCode", align 8
  call void @llvm.lifetime.start.p0(i64 24, ptr nonnull %7) #28
  %8 = getelementptr inbounds nuw i8, ptr %7, i64 8
  store i32 0, ptr %8, align 8, !tbaa !16
  store ptr getelementptr inbounds nuw inrange(-16, 24) (i8, ptr @_ZTVN6icu_7716IcuToolErrorCodeE, i64 16), ptr %7, align 8, !tbaa !18
  %9 = getelementptr inbounds nuw i8, ptr %7, i64 16
  store ptr @.str.50, ptr %9, align 8, !tbaa !20
  %10 = getelementptr inbounds nuw i8, ptr %2, i64 8
  %11 = load ptr, ptr %10, align 8, !tbaa !96
  %12 = load ptr, ptr %2, align 8, !tbaa !99
  %13 = ptrtoint ptr %11 to i64
  %14 = ptrtoint ptr %12 to i64
  %15 = sub i64 %13, %14
  %16 = sdiv exact i64 %15, 20
  %17 = trunc i64 %16 to i32
  %.03945 = add i32 %17, -1
  %18 = icmp sgt i32 %.03945, -1
  br i1 %18, label %.lr.ph.preheader, label %._crit_edge

.lr.ph.preheader:                                 ; preds = %6
  %19 = zext nneg i32 %.03945 to i64
  br label %.lr.ph

._crit_edge:                                      ; preds = %64, %6
  call void @_ZN6icu_7716IcuToolErrorCodeD1Ev(ptr noundef nonnull align 8 dereferenceable(24) %7) #28
  call void @llvm.lifetime.end.p0(i64 24, ptr nonnull %7) #28
  ret void

.lr.ph:                                           ; preds = %.lr.ph.preheader, %64
  %indvars.iv = phi i64 [ %19, %.lr.ph.preheader ], [ %indvars.iv.next, %64 ]
  %20 = load ptr, ptr %2, align 8, !tbaa !99
  %21 = getelementptr inbounds nuw %class.PendingDescriptor, ptr %20, i64 %indvars.iv
  %22 = getelementptr inbounds nuw i8, ptr %21, i64 8
  %23 = load i8, ptr %22, align 4, !tbaa !90
  %.not = icmp eq i8 %23, 0
  br i1 %.not, label %58, label %24

24:                                               ; preds = %.lr.ph
  %25 = getelementptr inbounds nuw i8, ptr %21, i64 16
  %26 = load i32, ptr %25, align 4, !tbaa !94
  %27 = getelementptr inbounds nuw i8, ptr %21, i64 12
  %28 = load i32, ptr %27, align 4, !tbaa !93
  %29 = getelementptr inbounds nuw i8, ptr %21, i64 9
  %30 = load i8, ptr %29, align 1, !tbaa !91
  %.not40 = icmp eq i8 %30, 0
  br i1 %.not40, label %31, label %33

31:                                               ; preds = %24
  %32 = add i32 %28, -2
  %.not41 = icmp ult i32 %26, %3
  %spec.select = select i1 %.not41, i32 0, i32 %4
  br label %36

33:                                               ; preds = %24
  %34 = add i32 %28, -1
  %.not42 = icmp ult i32 %26, %4
  %35 = select i1 %.not42, i32 0, i32 %5
  %spec.select44 = add i32 %35, %3
  br label %36

36:                                               ; preds = %33, %31
  %.038 = phi i32 [ %spec.select, %31 ], [ %spec.select44, %33 ]
  %.037 = phi i32 [ %32, %31 ], [ %34, %33 ]
  %37 = add i32 %26, 1
  %38 = add i32 %37, %.038
  %39 = icmp ugt i32 %38, 4095
  br i1 %39, label %40, label %43

40:                                               ; preds = %36
  store i32 5, ptr %8, align 8, !tbaa !16
  invoke void @_Z11handleErrorRN6icu_779ErrorCodeEiPKc(ptr noundef nonnull align 8 dereferenceable(12) %7, i32 noundef 633, ptr noundef %0)
          to label %43 unwind label %41

41:                                               ; preds = %46, %45, %40
  %42 = landingpad { ptr, i32 }
          cleanup
  br label %66

43:                                               ; preds = %40, %36
  %44 = icmp ugt i32 %.037, 7
  br i1 %44, label %45, label %46

45:                                               ; preds = %43
  store i32 5, ptr %8, align 8, !tbaa !16
  invoke void @_Z11handleErrorRN6icu_779ErrorCodeEiPKc(ptr noundef nonnull align 8 dereferenceable(12) %7, i32 noundef 637, ptr noundef %0)
          to label %46 unwind label %41

46:                                               ; preds = %45, %43
  %47 = load i32, ptr %21, align 4, !tbaa !87
  %48 = getelementptr inbounds nuw i8, ptr %21, i64 4
  %49 = load i32, ptr %48, align 4, !tbaa !89
  %50 = getelementptr inbounds nuw i8, ptr %21, i64 10
  %51 = load i8, ptr %50, align 2, !tbaa !92
  %52 = sext i8 %51 to i32
  %53 = shl nsw i32 %52, 4
  %54 = shl i32 %38, 16
  %55 = or i32 %54, %49
  %56 = or i32 %55, %53
  %57 = or i32 %56, %.037
  invoke void @umutablecptrie_set_77(ptr noundef %1, i32 noundef %47, i32 noundef %57, ptr noundef nonnull %8)
          to label %64 unwind label %41

58:                                               ; preds = %.lr.ph
  %59 = load i32, ptr %21, align 4, !tbaa !87
  %60 = getelementptr inbounds nuw i8, ptr %21, i64 4
  %61 = load i32, ptr %60, align 4, !tbaa !89
  invoke void @umutablecptrie_set_77(ptr noundef %1, i32 noundef %59, i32 noundef %61, ptr noundef nonnull %8)
          to label %64 unwind label %62

62:                                               ; preds = %58
  %63 = landingpad { ptr, i32 }
          cleanup
  br label %66

64:                                               ; preds = %46, %58
  %indvars.iv.next = add nsw i64 %indvars.iv, -1
  %65 = icmp sgt i64 %indvars.iv, 0
  br i1 %65, label %.lr.ph, label %._crit_edge, !llvm.loop !100

66:                                               ; preds = %62, %41
  %.pn = phi { ptr, i32 } [ %42, %41 ], [ %63, %62 ]
  call void @_ZN6icu_7716IcuToolErrorCodeD1Ev(ptr noundef nonnull align 8 dereferenceable(24) %7) #28
  call void @llvm.lifetime.end.p0(i64 24, ptr nonnull %7) #28
  resume { ptr, i32 } %.pn
}